target datalayout = "e-m:e-p270:32:32-p271:32:32-p272:64:64-i64:64-i128:128-f80:128-n8:16:32:64-S128"
target triple = "x86_64-pc-linux-gnu"

%struct.ForEachState = type { ptr, i32 }
%struct.List = type { i32, i32, i32, ptr, [0 x %union.ListCell] }
%union.ListCell = type { ptr }
%struct.ParseNamespaceItem = type { ptr, ptr, i32, ptr, ptr, i8, i8, i8, i8, i32 }
%struct.RangeTblEntry = type { i32, ptr, ptr, i32, i32, i8, i8, i32, i32, ptr, ptr, i8, i32, i32, ptr, ptr, ptr, ptr, ptr, i8, ptr, ptr, ptr, i32, i8, ptr, ptr, ptr, ptr, double, ptr, i8, i8, ptr }
%struct.Alias = type { i32, ptr, ptr }

@.str = private unnamed_addr constant [41 x i8] c"table name \22%s\22 specified more than once\00", align 1
@.str.1 = private unnamed_addr constant [17 x i8] c"parse_relation.c\00", align 1
@__func__.checkNameSpaceConflicts = private unnamed_addr constant [24 x i8] c"checkNameSpaceConflicts\00", align 1

; Function Attrs: nounwind uwtable
define dso_local void @checkNameSpaceConflicts(ptr noundef %0, ptr noundef %1, ptr noundef %2) #0 {
  %4 = alloca ptr, align 8
  %5 = alloca ptr, align 8
  %6 = alloca ptr, align 8
  %7 = alloca ptr, align 8
  %8 = alloca %struct.ForEachState, align 8
  %9 = alloca i32, align 4
  %10 = alloca ptr, align 8
  %11 = alloca ptr, align 8
  %12 = alloca ptr, align 8
  %13 = alloca ptr, align 8
  %14 = alloca %struct.ForEachState, align 8
  %15 = alloca ptr, align 8
  %16 = alloca ptr, align 8
  %17 = alloca ptr, align 8
  store ptr %0, ptr %4, align 8
  store ptr %1, ptr %5, align 8
  store ptr %2, ptr %6, align 8
  call void @llvm.lifetime.start.p0(i64 8, ptr %7) #8
  call void @llvm.lifetime.start.p0(i64 16, ptr %8) #8
  %18 = getelementptr inbounds nuw %struct.ForEachState, ptr %8, i32 0, i32 0
  %19 = load ptr, ptr %5, align 8
  store ptr %19, ptr %18, align 8
  %20 = getelementptr inbounds nuw %struct.ForEachState, ptr %8, i32 0, i32 1
  store i32 0, ptr %20, align 8
  %21 = getelementptr i8, ptr %8, i64 12
  call void @llvm.memset.p0.i64(ptr align 4 %21, i8 0, i64 4, i1 false)
  br label %22

22:                                               ; preds = %170, %3
  %23 = getelementptr inbounds nuw %struct.ForEachState, ptr %8, i32 0, i32 0
  %24 = load ptr, ptr %23, align 8
  %25 = icmp ne ptr %24, null
  br i1 %25, label %26, label %43

26:                                               ; preds = %22
  %27 = getelementptr inbounds nuw %struct.ForEachState, ptr %8, i32 0, i32 1
  %28 = load i32, ptr %27, align 8
  %29 = getelementptr inbounds nuw %struct.ForEachState, ptr %8, i32 0, i32 0
  %30 = load ptr, ptr %29, align 8
  %31 = getelementptr inbounds nuw %struct.List, ptr %30, i32 0, i32 1
  %32 = load i32, ptr %31, align 4
  %33 = icmp slt i32 %28, %32
  br i1 %33, label %34, label %43

34:                                               ; preds = %26
  %35 = getelementptr inbounds nuw %struct.ForEachState, ptr %8, i32 0, i32 0
  %36 = load ptr, ptr %35, align 8
  %37 = getelementptr inbounds nuw %struct.List, ptr %36, i32 0, i32 3
  %38 = load ptr, ptr %37, align 8
  %39 = getelementptr inbounds nuw %struct.ForEachState, ptr %8, i32 0, i32 1
  %40 = load i32, ptr %39, align 8
  %41 = sext i32 %40 to i64
  %42 = getelementptr inbounds %union.ListCell, ptr %38, i64 %41
  store ptr %42, ptr %7, align 8
  br label %44

43:                                               ; preds = %26, %22
  store ptr null, ptr %7, align 8
  br label %44

44:                                               ; preds = %43, %34
  %45 = phi i32 [ 1, %34 ], [ 0, %43 ]
  %46 = icmp ne i32 %45, 0
  br i1 %46, label %48, label %47

47:                                               ; preds = %44
  store i32 2, ptr %9, align 4
  call void @llvm.lifetime.end.p0(i64 16, ptr %8) #8
  br label %174

48:                                               ; preds = %44
  call void @llvm.lifetime.start.p0(i64 8, ptr %10) #8
  %49 = load ptr, ptr %7, align 8
  %50 = load ptr, ptr %49, align 8
  store ptr %50, ptr %10, align 8
  call void @llvm.lifetime.start.p0(i64 8, ptr %11) #8
  %51 = load ptr, ptr %10, align 8
  %52 = getelementptr inbounds nuw %struct.ParseNamespaceItem, ptr %51, i32 0, i32 1
  %53 = load ptr, ptr %52, align 8
  store ptr %53, ptr %11, align 8
  call void @llvm.lifetime.start.p0(i64 8, ptr %12) #8
  %54 = load ptr, ptr %10, align 8
  %55 = getelementptr inbounds nuw %struct.ParseNamespaceItem, ptr %54, i32 0, i32 0
  %56 = load ptr, ptr %55, align 8
  %57 = getelementptr inbounds nuw %struct.Alias, ptr %56, i32 0, i32 1
  %58 = load ptr, ptr %57, align 8
  store ptr %58, ptr %12, align 8
  call void @llvm.lifetime.start.p0(i64 8, ptr %13) #8
  %59 = load ptr, ptr %10, align 8
  %60 = getelementptr inbounds nuw %struct.ParseNamespaceItem, ptr %59, i32 0, i32 5
  %61 = load i8, ptr %60, align 8, !range !6, !noundef !7
  %62 = trunc i8 %61 to i1
  br i1 %62, label %64, label %63

63:                                               ; preds = %48
  store i32 4, ptr %9, align 4
  br label %167

64:                                               ; preds = %48
  call void @llvm.lifetime.start.p0(i64 16, ptr %14) #8
  %65 = getelementptr inbounds nuw %struct.ForEachState, ptr %14, i32 0, i32 0
  %66 = load ptr, ptr %6, align 8
  store ptr %66, ptr %65, align 8
  %67 = getelementptr inbounds nuw %struct.ForEachState, ptr %14, i32 0, i32 1
  store i32 0, ptr %67, align 8
  %68 = getelementptr i8, ptr %14, i64 12
  call void @llvm.memset.p0.i64(ptr align 4 %68, i8 0, i64 4, i1 false)
  br label %69

69:                                               ; preds = %162, %64
  %70 = getelementptr inbounds nuw %struct.ForEachState, ptr %14, i32 0, i32 0
  %71 = load ptr, ptr %70, align 8
  %72 = icmp ne ptr %71, null
  br i1 %72, label %73, label %90

73:                                               ; preds = %69
  %74 = getelementptr inbounds nuw %struct.ForEachState, ptr %14, i32 0, i32 1
  %75 = load i32, ptr %74, align 8
  %76 = getelementptr inbounds nuw %struct.ForEachState, ptr %14, i32 0, i32 0
  %77 = load ptr, ptr %76, align 8
  %78 = getelementptr inbounds nuw %struct.List, ptr %77, i32 0, i32 1
  %79 = load i32, ptr %78, align 4
  %80 = icmp slt i32 %75, %79
  br i1 %80, label %81, label %90

81:                                               ; preds = %73
  %82 = getelementptr inbounds nuw %struct.ForEachState, ptr %14, i32 0, i32 0
  %83 = load ptr, ptr %82, align 8
  %84 = getelementptr inbounds nuw %struct.List, ptr %83, i32 0, i32 3
  %85 = load ptr, ptr %84, align 8
  %86 = getelementptr inbounds nuw %struct.ForEachState, ptr %14, i32 0, i32 1
  %87 = load i32, ptr %86, align 8
  %88 = sext i32 %87 to i64
  %89 = getelementptr inbounds %union.ListCell, ptr %85, i64 %88
  store ptr %89, ptr %13, align 8
  br label %91

90:                                               ; preds = %73, %69
  store ptr null, ptr %13, align 8
  br label %91

91:                                               ; preds = %90, %81
  %92 = phi i32 [ 1, %81 ], [ 0, %90 ]
  %93 = icmp ne i32 %92, 0
  br i1 %93, label %95, label %94

94:                                               ; preds = %91
  store i32 5, ptr %9, align 4
  call void @llvm.lifetime.end.p0(i64 16, ptr %14) #8
  br label %166

95:                                               ; preds = %91
  call void @llvm.lifetime.start.p0(i64 8, ptr %15) #8
  %96 = load ptr, ptr %13, align 8
  %97 = load ptr, ptr %96, align 8
  store ptr %97, ptr %15, align 8
  call void @llvm.lifetime.start.p0(i64 8, ptr %16) #8
  %98 = load ptr, ptr %15, align 8
  %99 = getelementptr inbounds nuw %struct.ParseNamespaceItem, ptr %98, i32 0, i32 1
  %100 = load ptr, ptr %99, align 8
  store ptr %100, ptr %16, align 8
  call void @llvm.lifetime.start.p0(i64 8, ptr %17) #8
  %101 = load ptr, ptr %15, align 8
  %102 = getelementptr inbounds nuw %struct.ParseNamespaceItem, ptr %101, i32 0, i32 0
  %103 = load ptr, ptr %102, align 8
  %104 = getelementptr inbounds nuw %struct.Alias, ptr %103, i32 0, i32 1
  %105 = load ptr, ptr %104, align 8
  store ptr %105, ptr %17, align 8
  %106 = load ptr, ptr %15, align 8
  %107 = getelementptr inbounds nuw %struct.ParseNamespaceItem, ptr %106, i32 0, i32 5
  %108 = load i8, ptr %107, align 8, !range !6, !noundef !7
  %109 = trunc i8 %108 to i1
  br i1 %109, label %111, label %110

110:                                              ; preds = %95
  store i32 7, ptr %9, align 4
  br label %159

111:                                              ; preds = %95
  %112 = load ptr, ptr %17, align 8
  %113 = load ptr, ptr %12, align 8
  %114 = call i32 @strcmp(ptr noundef %112, ptr noundef %113) #10
  %115 = icmp ne i32 %114, 0
  br i1 %115, label %116, label %117

116:                                              ; preds = %111
  store i32 7, ptr %9, align 4
  br label %159

117:                                              ; preds = %111
  %118 = load ptr, ptr %11, align 8
  %119 = getelementptr inbounds nuw %struct.RangeTblEntry, ptr %118, i32 0, i32 3
  %120 = load i32, ptr %119, align 8
  %121 = icmp eq i32 %120, 0
  br i1 %121, label %122, label %146

122:                                              ; preds = %117
  %123 = load ptr, ptr %11, align 8
  %124 = getelementptr inbounds nuw %struct.RangeTblEntry, ptr %123, i32 0, i32 1
  %125 = load ptr, ptr %124, align 8
  %126 = icmp eq ptr %125, null
  br i1 %126, label %127, label %146

127:                                              ; preds = %122
  %128 = load ptr, ptr %16, align 8
  %129 = getelementptr inbounds nuw %struct.RangeTblEntry, ptr %128, i32 0, i32 3
  %130 = load i32, ptr %129, align 8
  %131 = icmp eq i32 %130, 0
  br i1 %131, label %132, label %146

132:                                              ; preds = %127
  %133 = load ptr, ptr %16, align 8
  %134 = getelementptr inbounds nuw %struct.RangeTblEntry, ptr %133, i32 0, i32 1
  %135 = load ptr, ptr %134, align 8
  %136 = icmp eq ptr %135, null
  br i1 %136, label %137, label %146

137:                                              ; preds = %132
  %138 = load ptr, ptr %11, align 8
  %139 = getelementptr inbounds nuw %struct.RangeTblEntry, ptr %138, i32 0, i32 4
  %140 = load i32, ptr %139, align 4
  %141 = load ptr, ptr %16, align 8
  %142 = getelementptr inbounds nuw %struct.RangeTblEntry, ptr %141, i32 0, i32 4
  %143 = load i32, ptr %142, align 4
  %144 = icmp ne i32 %140, %143
  br i1 %144, label %145, label %146

145:                                              ; preds = %137
  store i32 7, ptr %9, align 4
  br label %159

146:                                              ; preds = %137, %132, %127, %122, %117
  br label %147

147:                                              ; preds = %146
  br i1 true, label %148, label %150

148:                                              ; preds = %147
  %149 = call zeroext i1 @errstart_cold(i32 noundef 21, ptr noundef null) #9
  br i1 %149, label %152, label %156

150:                                              ; preds = %147
  %151 = call zeroext i1 @errstart(i32 noundef 21, ptr noundef null)
  br i1 %151, label %152, label %156

152:                                              ; preds = %150, %148
  %153 = call i32 @errcode(i32 noundef 33845380)
  %154 = load ptr, ptr %12, align 8
  %155 = call i32 (ptr, ...) @errmsg(ptr noundef @.str, ptr noundef %154)
  call void @errfinish(ptr noundef @.str.1, i32 noundef 474, ptr noundef @__func__.checkNameSpaceConflicts)
  br label %156

156:                                              ; preds = %152, %150, %148
  unreachable

157:                                              ; No predecessors!
  br label %158

158:                                              ; preds = %157
  store i32 0, ptr %9, align 4
  br label %159

159:                                              ; preds = %158, %145, %116, %110
  call void @llvm.lifetime.end.p0(i64 8, ptr %17) #8
  call void @llvm.lifetime.end.p0(i64 8, ptr %16) #8
  call void @llvm.lifetime.end.p0(i64 8, ptr %15) #8
  %160 = load i32, ptr %9, align 4
  switch i32 %160, label %175 [
    i32 0, label %161
    i32 7, label %162
  ]

161:                                              ; preds = %159
  br label %162

162:                                              ; preds = %161, %159
  %163 = getelementptr inbounds nuw %struct.ForEachState, ptr %14, i32 0, i32 1
  %164 = load i32, ptr %163, align 8
  %165 = add i32 %164, 1
  store i32 %165, ptr %163, align 8
  br label %69, !llvm.loop !12

166:                                              ; preds = %94
  store i32 0, ptr %9, align 4
  br label %167

167:                                              ; preds = %166, %63
  call void @llvm.lifetime.end.p0(i64 8, ptr %13) #8
  call void @llvm.lifetime.end.p0(i64 8, ptr %12) #8
  call void @llvm.lifetime.end.p0(i64 8, ptr %11) #8
  call void @llvm.lifetime.end.p0(i64 8, ptr %10) #8
  %168 = load i32, ptr %9, align 4
  switch i32 %168, label %175 [
    i32 0, label %169
    i32 4, label %170
  ]

169:                                              ; preds = %167
  br label %170

170:                                              ; preds = %169, %167
  %171 = getelementptr inbounds nuw %struct.ForEachState, ptr %8, i32 0, i32 1
  %172 = load i32, ptr %171, align 8
  %173 = add i32 %172, 1
  store i32 %173, ptr %171, align 8
  br label %22, !llvm.loop !13

174:                                              ; preds = %47
  call void @llvm.lifetime.end.p0(i64 8, ptr %7) #8
  ret void

175:                                              ; preds = %167, %159
  unreachable
}