; Function Attrs: nounwind uwtable
define dso_local void @checkNameSpaceConflicts(ptr noundef readnone captures(none) %0, ptr noundef readonly captures(address_is_null) %1, ptr noundef readonly captures(address_is_null) %2) local_unnamed_addr #0 {
  %.not = icmp eq ptr %1, null
  br i1 %.not, label %._crit_edge, label %.lr.ph49

.lr.ph49:                                         ; preds = %3
  %4 = getelementptr inbounds nuw i8, ptr %1, i64 4
  %5 = load i32, ptr %4, align 4
  %.not34 = icmp ne ptr %2, null
  %6 = getelementptr inbounds nuw i8, ptr %2, i64 4
  %7 = getelementptr inbounds nuw i8, ptr %2, i64 16
  %8 = icmp sgt i32 %5, 0
  %or.cond = select i1 %.not34, i1 %8, i1 false
  br i1 %or.cond, label %.lr.ph, label %._crit_edge

.lr.ph:                                           ; preds = %.lr.ph49
  %9 = getelementptr inbounds nuw i8, ptr %1, i64 16
  %10 = load ptr, ptr %9, align 8
  %wide.trip.count65 = zext nneg i32 %5 to i64
  br label %11

._crit_edge:                                      ; preds = %.thread41, %.lr.ph49, %3
  ret void

11:                                               ; preds = %.lr.ph, %.thread41
  %indvars.iv62 = phi i64 [ 0, %.lr.ph ], [ %indvars.iv.next63, %.thread41 ]
  %12 = getelementptr inbounds nuw %union.ListCell, ptr %10, i64 %indvars.iv62
  %13 = load ptr, ptr %12, align 8
  %14 = load ptr, ptr %13, align 8
  %15 = getelementptr inbounds nuw i8, ptr %14, i64 8
  %16 = load ptr, ptr %15, align 8
  %17 = getelementptr inbounds nuw i8, ptr %13, i64 40
  %18 = load i8, ptr %17, align 8, !range !4, !noundef !5
  %19 = trunc nuw i8 %18 to i1
  br i1 %19, label %.preheader, label %.thread41

.preheader:                                       ; preds = %11
  %20 = getelementptr inbounds nuw i8, ptr %13, i64 8
  %21 = load ptr, ptr %20, align 8
  %22 = load i32, ptr %6, align 4
  %23 = getelementptr inbounds nuw i8, ptr %21, i64 24
  %24 = getelementptr inbounds nuw i8, ptr %21, i64 8
  %25 = getelementptr inbounds nuw i8, ptr %21, i64 28
  %26 = icmp sgt i32 %22, 0
  br i1 %26, label %.lr.ph47, label %.thread41

.lr.ph47:                                         ; preds = %.preheader
  %27 = load ptr, ptr %7, align 8
  %wide.trip.count = zext nneg i32 %22 to i64
  br label %28

28:                                               ; preds = %.lr.ph47, %62
  %indvars.iv = phi i64 [ 0, %.lr.ph47 ], [ %indvars.iv.next, %62 ]
  %29 = getelementptr inbounds nuw %union.ListCell, ptr %27, i64 %indvars.iv
  %30 = load ptr, ptr %29, align 8
  %31 = getelementptr inbounds nuw i8, ptr %30, i64 8
  %32 = load ptr, ptr %31, align 8
  %33 = getelementptr inbounds nuw i8, ptr %30, i64 40
  %34 = load i8, ptr %33, align 8, !range !4, !noundef !5
  %35 = trunc nuw i8 %34 to i1
  br i1 %35, label %36, label %62

36:                                               ; preds = %28
  %37 = load ptr, ptr %30, align 8
  %38 = getelementptr inbounds nuw i8, ptr %37, i64 8
  %39 = load ptr, ptr %38, align 8
  %40 = tail call i32 @strcmp(ptr noundef nonnull dereferenceable(1) %39, ptr noundef nonnull dereferenceable(1) %16) #12
  %.not36 = icmp eq i32 %40, 0
  br i1 %.not36, label %41, label %62

41:                                               ; preds = %36
  %42 = load i32, ptr %23, align 8
  %43 = icmp eq i32 %42, 0
  br i1 %43, label %44, label %.split

44:                                               ; preds = %41
  %45 = load ptr, ptr %24, align 8
  %46 = icmp eq ptr %45, null
  br i1 %46, label %47, label %.split

47:                                               ; preds = %44
  %48 = getelementptr inbounds nuw i8, ptr %32, i64 24
  %49 = load i32, ptr %48, align 8
  %50 = icmp eq i32 %49, 0
  br i1 %50, label %51, label %.split

51:                                               ; preds = %47
  %52 = getelementptr inbounds nuw i8, ptr %32, i64 8
  %53 = load ptr, ptr %52, align 8
  %54 = icmp eq ptr %53, null
  br i1 %54, label %55, label %.split

55:                                               ; preds = %51
  %56 = load i32, ptr %25, align 4
  %57 = getelementptr inbounds nuw i8, ptr %32, i64 28
  %58 = load i32, ptr %57, align 4
  %.not37 = icmp eq i32 %56, %58
  br i1 %.not37, label %.split, label %62

.split:                                           ; preds = %55, %51, %47, %44, %41
  %59 = tail call zeroext i1 @errstart_cold(i32 noundef 21, ptr noundef null) #13
  tail call void @llvm.assume(i1 %59)
  %60 = tail call i32 @errcode(i32 noundef 33845380) #11
  %61 = tail call i32 (ptr, ...) @errmsg(ptr noundef nonnull @.str, ptr noundef nonnull %16) #11
  tail call void @errfinish(ptr noundef nonnull @.str.1, i32 noundef 474, ptr noundef nonnull @__func__.checkNameSpaceConflicts) #11
  unreachable

62:                                               ; preds = %55, %36, %28
  %indvars.iv.next = add nuw nsw i64 %indvars.iv, 1
  %exitcond.not = icmp eq i64 %indvars.iv.next, %wide.trip.count
  br i1 %exitcond.not, label %.thread41, label %28

.thread41:                                        ; preds = %62, %.preheader, %11
  %indvars.iv.next63 = add nuw nsw i64 %indvars.iv62, 1
  %exitcond66.not = icmp eq i64 %indvars.iv.next63, %wide.trip.count65
  br i1 %exitcond66.not, label %._crit_edge, label %11
}